; Function Attrs: mustprogress nounwind uwtable
define dso_local void @_ZN4llvm8codeview19SymbolRecordMapping16visitKnownRecordERNS0_8CVRecordINS0_10SymbolKindEEERNS0_9ExportSymE(ptr dead_on_unwind noalias writable sret(%"class.llvm::Error") align 8 %0, ptr noundef nonnull align 8 dereferenceable(92) %1, ptr nocapture nonnull readnone align 1 %2, ptr noundef nonnull align 8 dereferenceable(28) %3) unnamed_addr #0 align 2 {
_ZN4llvm5ErrorD2Ev.exit:
  %4 = alloca %"class.llvm::Twine", align 8
  %5 = alloca %"class.llvm::Twine", align 8
  %6 = alloca %"class.llvm::Twine", align 8
  %7 = getelementptr inbounds nuw i8, ptr %1, i64 16
  %8 = getelementptr inbounds nuw i8, ptr %3, i64 2
  %9 = getelementptr inbounds nuw i8, ptr %4, i64 32
  store i16 257, ptr %9, align 8
  call void @_ZN4llvm8codeview16CodeViewRecordIO10mapIntegerItEENS_5ErrorERT_RKNS_5TwineE(ptr dead_on_unwind writable sret(%"class.llvm::Error") align 8 %0, ptr noundef nonnull align 8 dereferenceable(72) %7, ptr noundef nonnull align 2 dereferenceable(2) %8, ptr noundef nonnull align 8 dereferenceable(34) %4)
  %10 = load ptr, ptr %0, align 8
  %.not = icmp eq ptr %10, null
  br i1 %.not, label %_ZN4llvm5ErrorD2Ev.exit16, label %_ZN4llvm12ErrorSuccessD2Ev.exit

_ZN4llvm5ErrorD2Ev.exit16:                        ; preds = %_ZN4llvm5ErrorD2Ev.exit
  %11 = getelementptr inbounds nuw i8, ptr %3, i64 4
  %12 = getelementptr inbounds nuw i8, ptr %5, i64 32
  store i16 257, ptr %12, align 8
  call void @_ZN4llvm8codeview16CodeViewRecordIO7mapEnumINS0_11ExportFlagsEEENS_5ErrorERT_RKNS_5TwineE(ptr dead_on_unwind nonnull writable sret(%"class.llvm::Error") align 8 %0, ptr noundef nonnull align 8 dereferenceable(72) %7, ptr noundef nonnull align 2 dereferenceable(2) %11, ptr noundef nonnull align 8 dereferenceable(34) %5)
  %13 = load ptr, ptr %0, align 8
  %.not19 = icmp eq ptr %13, null
  br i1 %.not19, label %_ZN4llvm5ErrorD2Ev.exit17, label %_ZN4llvm12ErrorSuccessD2Ev.exit

_ZN4llvm5ErrorD2Ev.exit17:                        ; preds = %_ZN4llvm5ErrorD2Ev.exit16
  %14 = getelementptr inbounds nuw i8, ptr %3, i64 8
  %15 = getelementptr inbounds nuw i8, ptr %6, i64 32
  store i16 257, ptr %15, align 8
  call void @_ZN4llvm8codeview16CodeViewRecordIO10mapStringZERNS_9StringRefERKNS_5TwineE(ptr dead_on_unwind nonnull writable sret(%"class.llvm::Error") align 8 %0, ptr noundef nonnull align 8 dereferenceable(72) %7, ptr noundef nonnull align 8 dereferenceable(16) %14, ptr noundef nonnull align 8 dereferenceable(34) %6) #16
  br label %_ZN4llvm12ErrorSuccessD2Ev.exit

_ZN4llvm12ErrorSuccessD2Ev.exit:                  ; preds = %_ZN4llvm5ErrorD2Ev.exit17, %_ZN4llvm5ErrorD2Ev.exit16, %_ZN4llvm5ErrorD2Ev.exit
  ret void
}